target datalayout = "e-m:e-p270:32:32-p271:32:32-p272:64:64-i64:64-i128:128-f80:128-n8:16:32:64-S128"
target triple = "x86_64-pc-linux-gnu"

%struct.__va_list_tag = type { i32, i32, ptr, ptr }

; Function Attrs: inlinehint nounwind uwtable
define internal ptr @RAISE_ERROR_KNOWN_LOCATION(ptr noundef %0, ptr noundef %1, i64 noundef %2, i64 noundef %3, i64 noundef %4, i64 noundef %5, ptr noundef %6, ...) #4 {
  %8 = alloca ptr, align 8
  %9 = alloca ptr, align 8
  %10 = alloca i64, align 8
  %11 = alloca i64, align 8
  %12 = alloca i64, align 8
  %13 = alloca i64, align 8
  %14 = alloca ptr, align 8
  %15 = alloca [1 x %struct.__va_list_tag], align 16
  %16 = alloca i64, align 8
  %17 = alloca i64, align 8
  store ptr %0, ptr %8, align 8, !tbaa !4
  store ptr %1, ptr %9, align 8, !tbaa !14
  store i64 %2, ptr %10, align 8, !tbaa !12
  store i64 %3, ptr %11, align 8, !tbaa !12
  store i64 %4, ptr %12, align 8, !tbaa !12
  store i64 %5, ptr %13, align 8, !tbaa !12
  store ptr %6, ptr %14, align 8, !tbaa !10
  call void @llvm.lifetime.start.p0(i64 24, ptr %15) #8
  %18 = getelementptr inbounds [1 x %struct.__va_list_tag], ptr %15, i64 0, i64 0
  call void @llvm.va_start.p0(ptr %18)
  call void @llvm.lifetime.start.p0(i64 8, ptr %16) #8
  %19 = load i64, ptr %11, align 8, !tbaa !12
  %20 = icmp eq i64 %19, -5
  br i1 %20, label %21, label %22

21:                                               ; preds = %7
  br label %25

22:                                               ; preds = %7
  %23 = load i64, ptr %11, align 8, !tbaa !12
  %24 = add i64 %23, 1
  br label %25

25:                                               ; preds = %22, %21
  %26 = phi i64 [ -5, %21 ], [ %24, %22 ]
  store i64 %26, ptr %16, align 8, !tbaa !12
  call void @llvm.lifetime.start.p0(i64 8, ptr %17) #8
  %27 = load i64, ptr %13, align 8, !tbaa !12
  %28 = icmp eq i64 %27, -5
  br i1 %28, label %29, label %30

29:                                               ; preds = %25
  br label %33

30:                                               ; preds = %25
  %31 = load i64, ptr %13, align 8, !tbaa !12
  %32 = add i64 %31, 1
  br label %33

33:                                               ; preds = %30, %29
  %34 = phi i64 [ -5, %29 ], [ %32, %30 ]
  store i64 %34, ptr %17, align 8, !tbaa !12
  %35 = load ptr, ptr %8, align 8, !tbaa !4
  %36 = load ptr, ptr %9, align 8, !tbaa !14
  %37 = load i64, ptr %10, align 8, !tbaa !12
  %38 = load i64, ptr %16, align 8, !tbaa !12
  %39 = load i64, ptr %12, align 8, !tbaa !12
  %40 = load i64, ptr %17, align 8, !tbaa !12
  %41 = load ptr, ptr %14, align 8, !tbaa !10
  %42 = getelementptr inbounds [1 x %struct.__va_list_tag], ptr %15, i64 0, i64 0
  %43 = call ptr @_PyPegen_raise_error_known_location(ptr noundef %35, ptr noundef %36, i64 noundef %37, i64 noundef %38, i64 noundef %39, i64 noundef %40, ptr noundef %41, ptr noundef %42)
  %44 = getelementptr inbounds [1 x %struct.__va_list_tag], ptr %15, i64 0, i64 0
  call void @llvm.va_end.p0(ptr %44)
  call void @llvm.lifetime.end.p0(i64 8, ptr %17) #8
  call void @llvm.lifetime.end.p0(i64 8, ptr %16) #8
  call void @llvm.lifetime.end.p0(i64 24, ptr %15) #8
  ret ptr null
}