; Function Attrs: inlinehint nounwind uwtable
define internal void @RAISE_ERROR_KNOWN_LOCATION(ptr noundef %0, ptr noundef %1, i64 noundef range(i64 -2147483648, 2147483648) %2, i64 noundef range(i64 -2147483648, 2147483648) %3, i64 noundef range(i64 -2147483648, 2147483648) %4, i64 noundef range(i64 -2147483648, 2147483648) %5, ptr readnone captures(none) %6, ...) unnamed_addr #4 {
  %8 = alloca [1 x %struct.__va_list_tag], align 16
  call void @llvm.lifetime.start.p0(i64 24, ptr nonnull %8) #8
  call void @llvm.va_start.p0(ptr nonnull %8)
  %9 = icmp eq i64 %3, -5
  %10 = add nsw i64 %3, 1
  %11 = select i1 %9, i64 -5, i64 %10
  %12 = icmp eq i64 %5, -5
  %13 = add nsw i64 %5, 1
  %14 = select i1 %12, i64 -5, i64 %13
  %15 = call ptr @_PyPegen_raise_error_known_location(ptr noundef %0, ptr noundef %1, i64 noundef %2, i64 noundef %11, i64 noundef %4, i64 noundef %14, ptr noundef nonnull @.str.2, ptr noundef nonnull %8) #8
  call void @llvm.va_end.p0(ptr nonnull %8)
  call void @llvm.lifetime.end.p0(i64 24, ptr nonnull %8) #8
  ret void
}